target datalayout = "e-m:e-p270:32:32-p271:32:32-p272:64:64-i64:64-i128:128-f80:128-n8:16:32:64-S128"
target triple = "x86_64-pc-linux-gnu"

%struct.mi_commit_mask_s = type { [8 x i64] }
%struct.mi_segment_s = type { %struct.mi_memid_s, i8, i8, i64, ptr, i64, %struct.mi_commit_mask_s, %struct.mi_commit_mask_s, ptr, i8, i8, i64, i64, i64, i64, ptr, ptr, i64, i64, i32, i64, i64, [513 x %struct.mi_page_s] }
%struct.mi_memid_s = type { %union.anon, i8, i8, i8, i32 }
%union.anon = type { %struct.mi_memid_os_info }
%struct.mi_memid_os_info = type { ptr, i64 }
%struct.mi_page_s = type { i32, i32, i8, i16, i16, %union.mi_page_flags_s, i8, ptr, ptr, i16, i8, i8, i64, ptr, i64, i64, ptr, ptr, [1 x ptr] }
%union.mi_page_flags_s = type { i8 }

@.str = private unnamed_addr constant [88 x i8] c"commit mask overflow: idx=%zu count=%zu start=%zx end=%zx p=0x%p size=%zu fullsize=%zu\0A\00", align 1

; Function Attrs: inlinehint nounwind uwtable
define internal void @mi_commit_mask_create_full(ptr noundef %0) #2 {
  %2 = alloca ptr, align 8
  %3 = alloca i64, align 8
  store ptr %0, ptr %2, align 8, !tbaa !3
  call void @llvm.lifetime.start.p0(i64 8, ptr %3) #8
  store i64 0, ptr %3, align 8, !tbaa !8
  br label %4

4:                                                ; preds = %13, %1
  %5 = load i64, ptr %3, align 8, !tbaa !8
  %6 = icmp ult i64 %5, 8
  br i1 %6, label %8, label %7

7:                                                ; preds = %4
  call void @llvm.lifetime.end.p0(i64 8, ptr %3) #8
  br label %16

8:                                                ; preds = %4
  %9 = load ptr, ptr %2, align 8, !tbaa !3
  %10 = getelementptr inbounds nuw %struct.mi_commit_mask_s, ptr %9, i32 0, i32 0
  %11 = load i64, ptr %3, align 8, !tbaa !8
  %12 = getelementptr inbounds nuw [8 x i64], ptr %10, i64 0, i64 %11
  store i64 -1, ptr %12, align 8, !tbaa !8
  br label %13

13:                                               ; preds = %8
  %14 = load i64, ptr %3, align 8, !tbaa !8
  %15 = add i64 %14, 1
  store i64 %15, ptr %3, align 8, !tbaa !8
  br label %4, !llvm.loop !112

16:                                               ; preds = %7
  ret void
}

; Function Attrs: nounwind uwtable
define internal void @mi_commit_mask_create(i64 noundef %0, i64 noundef %1, ptr noundef %2) #0 {
  %4 = alloca i64, align 8
  %5 = alloca i64, align 8
  %6 = alloca ptr, align 8
  %7 = alloca i64, align 8
  %8 = alloca i64, align 8
  %9 = alloca i64, align 8
  %10 = alloca i64, align 8
  %11 = alloca i64, align 8
  store i64 %0, ptr %4, align 8, !tbaa !8
  store i64 %1, ptr %5, align 8, !tbaa !8
  store ptr %2, ptr %6, align 8, !tbaa !3
  %12 = load i64, ptr %5, align 8, !tbaa !8
  %13 = icmp eq i64 %12, 512
  br i1 %13, label %14, label %16

14:                                               ; preds = %3
  %15 = load ptr, ptr %6, align 8, !tbaa !3
  call void @mi_commit_mask_create_full(ptr noundef %15) #9
  br label %65

16:                                               ; preds = %3
  %17 = load i64, ptr %5, align 8, !tbaa !8
  %18 = icmp eq i64 %17, 0
  br i1 %18, label %19, label %21

19:                                               ; preds = %16
  %20 = load ptr, ptr %6, align 8, !tbaa !3
  call void @mi_commit_mask_create_empty(ptr noundef %20) #9
  br label %64

21:                                               ; preds = %16
  %22 = load ptr, ptr %6, align 8, !tbaa !3
  call void @mi_commit_mask_create_empty(ptr noundef %22) #9
  call void @llvm.lifetime.start.p0(i64 8, ptr %7) #8
  %23 = load i64, ptr %4, align 8, !tbaa !8
  %24 = udiv i64 %23, 64
  store i64 %24, ptr %7, align 8, !tbaa !8
  call void @llvm.lifetime.start.p0(i64 8, ptr %8) #8
  %25 = load i64, ptr %4, align 8, !tbaa !8
  %26 = urem i64 %25, 64
  store i64 %26, ptr %8, align 8, !tbaa !8
  br label %27

27:                                               ; preds = %51, %21
  %28 = load i64, ptr %5, align 8, !tbaa !8
  %29 = icmp ugt i64 %28, 0
  br i1 %29, label %30, label %63

30:                                               ; preds = %27
  call void @llvm.lifetime.start.p0(i64 8, ptr %9) #8
  %31 = load i64, ptr %8, align 8, !tbaa !8
  %32 = sub i64 64, %31
  store i64 %32, ptr %9, align 8, !tbaa !8
  call void @llvm.lifetime.start.p0(i64 8, ptr %10) #8
  %33 = load i64, ptr %5, align 8, !tbaa !8
  %34 = load i64, ptr %9, align 8, !tbaa !8
  %35 = icmp ugt i64 %33, %34
  br i1 %35, label %36, label %38

36:                                               ; preds = %30
  %37 = load i64, ptr %9, align 8, !tbaa !8
  br label %40

38:                                               ; preds = %30
  %39 = load i64, ptr %5, align 8, !tbaa !8
  br label %40

40:                                               ; preds = %38, %36
  %41 = phi i64 [ %37, %36 ], [ %39, %38 ]
  store i64 %41, ptr %10, align 8, !tbaa !8
  call void @llvm.lifetime.start.p0(i64 8, ptr %11) #8
  %42 = load i64, ptr %10, align 8, !tbaa !8
  %43 = icmp uge i64 %42, 64
  br i1 %43, label %44, label %45

44:                                               ; preds = %40
  br label %51

45:                                               ; preds = %40
  %46 = load i64, ptr %10, align 8, !tbaa !8
  %47 = shl i64 1, %46
  %48 = sub i64 %47, 1
  %49 = load i64, ptr %8, align 8, !tbaa !8
  %50 = shl i64 %48, %49
  br label %51

51:                                               ; preds = %45, %44
  %52 = phi i64 [ -1, %44 ], [ %50, %45 ]
  store i64 %52, ptr %11, align 8, !tbaa !8
  %53 = load i64, ptr %11, align 8, !tbaa !8
  %54 = load ptr, ptr %6, align 8, !tbaa !3
  %55 = getelementptr inbounds nuw %struct.mi_commit_mask_s, ptr %54, i32 0, i32 0
  %56 = load i64, ptr %7, align 8, !tbaa !8
  %57 = getelementptr inbounds nuw [8 x i64], ptr %55, i64 0, i64 %56
  store i64 %53, ptr %57, align 8, !tbaa !8
  %58 = load i64, ptr %10, align 8, !tbaa !8
  %59 = load i64, ptr %5, align 8, !tbaa !8
  %60 = sub i64 %59, %58
  store i64 %60, ptr %5, align 8, !tbaa !8
  store i64 0, ptr %8, align 8, !tbaa !8
  %61 = load i64, ptr %7, align 8, !tbaa !8
  %62 = add i64 %61, 1
  store i64 %62, ptr %7, align 8, !tbaa !8
  call void @llvm.lifetime.end.p0(i64 8, ptr %11) #8
  call void @llvm.lifetime.end.p0(i64 8, ptr %10) #8
  call void @llvm.lifetime.end.p0(i64 8, ptr %9) #8
  br label %27, !llvm.loop !111

63:                                               ; preds = %27
  call void @llvm.lifetime.end.p0(i64 8, ptr %8) #8
  call void @llvm.lifetime.end.p0(i64 8, ptr %7) #8
  br label %64

64:                                               ; preds = %63, %19
  br label %65

65:                                               ; preds = %64, %14
  ret void
}

; Function Attrs: inlinehint nounwind uwtable
define internal i64 @_mi_align_down(i64 noundef %0, i64 noundef %1) #2 {
  %3 = alloca i64, align 8
  %4 = alloca i64, align 8
  %5 = alloca i64, align 8
  %6 = alloca i64, align 8
  %7 = alloca i32, align 4
  store i64 %0, ptr %4, align 8, !tbaa !8
  store i64 %1, ptr %5, align 8, !tbaa !8
  call void @llvm.lifetime.start.p0(i64 8, ptr %6) #8
  %8 = load i64, ptr %5, align 8, !tbaa !8
  %9 = sub i64 %8, 1
  store i64 %9, ptr %6, align 8, !tbaa !8
  %10 = load i64, ptr %5, align 8, !tbaa !8
  %11 = load i64, ptr %6, align 8, !tbaa !8
  %12 = and i64 %10, %11
  %13 = icmp eq i64 %12, 0
  br i1 %13, label %14, label %19

14:                                               ; preds = %2
  %15 = load i64, ptr %4, align 8, !tbaa !8
  %16 = load i64, ptr %6, align 8, !tbaa !8
  %17 = xor i64 %16, -1
  %18 = and i64 %15, %17
  store i64 %18, ptr %3, align 8
  store i32 1, ptr %7, align 4
  br label %25

19:                                               ; preds = %2
  %20 = load i64, ptr %4, align 8, !tbaa !8
  %21 = load i64, ptr %5, align 8, !tbaa !8
  %22 = udiv i64 %20, %21
  %23 = load i64, ptr %5, align 8, !tbaa !8
  %24 = mul i64 %22, %23
  store i64 %24, ptr %3, align 8
  store i32 1, ptr %7, align 4
  br label %25

25:                                               ; preds = %19, %14
  call void @llvm.lifetime.end.p0(i64 8, ptr %6) #8
  %26 = load i64, ptr %3, align 8
  ret i64 %26
}

; Function Attrs: inlinehint nounwind uwtable
define internal i64 @_mi_align_up(i64 noundef %0, i64 noundef %1) #2 {
  %3 = alloca i64, align 8
  %4 = alloca i64, align 8
  %5 = alloca i64, align 8
  %6 = alloca i64, align 8
  %7 = alloca i32, align 4
  store i64 %0, ptr %4, align 8, !tbaa !8
  store i64 %1, ptr %5, align 8, !tbaa !8
  call void @llvm.lifetime.start.p0(i64 8, ptr %6) #8
  %8 = load i64, ptr %5, align 8, !tbaa !8
  %9 = sub i64 %8, 1
  store i64 %9, ptr %6, align 8, !tbaa !8
  %10 = load i64, ptr %5, align 8, !tbaa !8
  %11 = load i64, ptr %6, align 8, !tbaa !8
  %12 = and i64 %10, %11
  %13 = icmp eq i64 %12, 0
  br i1 %13, label %14, label %21

14:                                               ; preds = %2
  %15 = load i64, ptr %4, align 8, !tbaa !8
  %16 = load i64, ptr %6, align 8, !tbaa !8
  %17 = add i64 %15, %16
  %18 = load i64, ptr %6, align 8, !tbaa !8
  %19 = xor i64 %18, -1
  %20 = and i64 %17, %19
  store i64 %20, ptr %3, align 8
  store i32 1, ptr %7, align 4
  br label %29

21:                                               ; preds = %2
  %22 = load i64, ptr %4, align 8, !tbaa !8
  %23 = load i64, ptr %6, align 8, !tbaa !8
  %24 = add i64 %22, %23
  %25 = load i64, ptr %5, align 8, !tbaa !8
  %26 = udiv i64 %24, %25
  %27 = load i64, ptr %5, align 8, !tbaa !8
  %28 = mul i64 %26, %27
  store i64 %28, ptr %3, align 8
  store i32 1, ptr %7, align 4
  br label %29

29:                                               ; preds = %21, %14
  call void @llvm.lifetime.end.p0(i64 8, ptr %6) #8
  %30 = load i64, ptr %3, align 8
  ret i64 %30
}

; Function Attrs: inlinehint nounwind uwtable
define internal i64 @mi_segment_size(ptr noundef %0) #2 {
  %2 = alloca ptr, align 8
  store ptr %0, ptr %2, align 8, !tbaa !19
  %3 = load ptr, ptr %2, align 8, !tbaa !19
  %4 = getelementptr inbounds nuw %struct.mi_segment_s, ptr %3, i32 0, i32 17
  %5 = load i64, ptr %4, align 8, !tbaa !110
  %6 = mul i64 %5, 65536
  ret i64 %6
}

; Function Attrs: nounwind uwtable
define internal i64 @mi_segment_info_size(ptr noundef %0) #0 {
  %2 = alloca ptr, align 8
  store ptr %0, ptr %2, align 8, !tbaa !19
  %3 = load ptr, ptr %2, align 8, !tbaa !19
  %4 = getelementptr inbounds nuw %struct.mi_segment_s, ptr %3, i32 0, i32 18
  %5 = load i64, ptr %4, align 8, !tbaa !109
  %6 = mul i64 %5, 65536
  ret i64 %6
}

; Function Attrs: inlinehint nounwind uwtable
define internal void @mi_commit_mask_create_empty(ptr noundef %0) #2 {
  %2 = alloca ptr, align 8
  %3 = alloca i64, align 8
  store ptr %0, ptr %2, align 8, !tbaa !3
  call void @llvm.lifetime.start.p0(i64 8, ptr %3) #8
  store i64 0, ptr %3, align 8, !tbaa !8
  br label %4

4:                                                ; preds = %13, %1
  %5 = load i64, ptr %3, align 8, !tbaa !8
  %6 = icmp ult i64 %5, 8
  br i1 %6, label %8, label %7

7:                                                ; preds = %4
  call void @llvm.lifetime.end.p0(i64 8, ptr %3) #8
  br label %16

8:                                                ; preds = %4
  %9 = load ptr, ptr %2, align 8, !tbaa !3
  %10 = getelementptr inbounds nuw %struct.mi_commit_mask_s, ptr %9, i32 0, i32 0
  %11 = load i64, ptr %3, align 8, !tbaa !8
  %12 = getelementptr inbounds nuw [8 x i64], ptr %10, i64 0, i64 %11
  store i64 0, ptr %12, align 8, !tbaa !8
  br label %13

13:                                               ; preds = %8
  %14 = load i64, ptr %3, align 8, !tbaa !8
  %15 = add i64 %14, 1
  store i64 %15, ptr %3, align 8, !tbaa !8
  br label %4, !llvm.loop !103

16:                                               ; preds = %7
  ret void
}

; Function Attrs: nounwind uwtable
define internal void @mi_segment_commit_mask(ptr noundef %0, i1 noundef zeroext %1, ptr noundef %2, i64 noundef %3, ptr noundef %4, ptr noundef %5, ptr noundef %6) #0 {
  %8 = alloca ptr, align 8
  %9 = alloca i8, align 1
  %10 = alloca ptr, align 8
  %11 = alloca i64, align 8
  %12 = alloca ptr, align 8
  %13 = alloca ptr, align 8
  %14 = alloca ptr, align 8
  %15 = alloca i64, align 8
  %16 = alloca i64, align 8
  %17 = alloca i32, align 4
  %18 = alloca i64, align 8
  %19 = alloca i64, align 8
  %20 = alloca i64, align 8
  %21 = alloca i64, align 8
  %22 = alloca i64, align 8
  store ptr %0, ptr %8, align 8, !tbaa !19
  %23 = zext i1 %1 to i8
  store i8 %23, ptr %9, align 1, !tbaa !31
  store ptr %2, ptr %10, align 8, !tbaa !23
  store i64 %3, ptr %11, align 8, !tbaa !8
  store ptr %4, ptr %12, align 8, !tbaa !104
  store ptr %5, ptr %13, align 8, !tbaa !13
  store ptr %6, ptr %14, align 8, !tbaa !3
  %24 = load ptr, ptr %14, align 8, !tbaa !3
  call void @mi_commit_mask_create_empty(ptr noundef %24) #9
  %25 = load i64, ptr %11, align 8, !tbaa !8
  %26 = icmp eq i64 %25, 0
  br i1 %26, label %35, label %27

27:                                               ; preds = %7
  %28 = load i64, ptr %11, align 8, !tbaa !8
  %29 = icmp ugt i64 %28, 33554432
  br i1 %29, label %35, label %30

30:                                               ; preds = %27
  %31 = load ptr, ptr %8, align 8, !tbaa !19
  %32 = getelementptr inbounds nuw %struct.mi_segment_s, ptr %31, i32 0, i32 19
  %33 = load i32, ptr %32, align 8, !tbaa !55
  %34 = icmp eq i32 %33, 1
  br i1 %34, label %35, label %36

35:                                               ; preds = %30, %27, %7
  br label %131

36:                                               ; preds = %30
  call void @llvm.lifetime.start.p0(i64 8, ptr %15) #8
  %37 = load ptr, ptr %8, align 8, !tbaa !19
  %38 = call i64 @mi_segment_info_size(ptr noundef %37) #9
  store i64 %38, ptr %15, align 8, !tbaa !8
  call void @llvm.lifetime.start.p0(i64 8, ptr %16) #8
  %39 = load ptr, ptr %8, align 8, !tbaa !19
  %40 = call i64 @mi_segment_size(ptr noundef %39) #9
  store i64 %40, ptr %16, align 8, !tbaa !8
  %41 = load ptr, ptr %10, align 8, !tbaa !23
  %42 = load ptr, ptr %8, align 8, !tbaa !19
  %43 = load i64, ptr %16, align 8, !tbaa !8
  %44 = getelementptr inbounds nuw i8, ptr %42, i64 %43
  %45 = icmp uge ptr %41, %44
  br i1 %45, label %46, label %47

46:                                               ; preds = %36
  store i32 1, ptr %17, align 4
  br label %129

47:                                               ; preds = %36
  call void @llvm.lifetime.start.p0(i64 8, ptr %18) #8
  %48 = load ptr, ptr %10, align 8, !tbaa !23
  %49 = load ptr, ptr %8, align 8, !tbaa !19
  %50 = ptrtoint ptr %48 to i64
  %51 = ptrtoint ptr %49 to i64
  %52 = sub i64 %50, %51
  store i64 %52, ptr %18, align 8, !tbaa !8
  call void @llvm.lifetime.start.p0(i64 8, ptr %19) #8
  call void @llvm.lifetime.start.p0(i64 8, ptr %20) #8
  %53 = load i8, ptr %9, align 1, !tbaa !31, !range !33, !noundef !34
  %54 = trunc i8 %53 to i1
  br i1 %54, label %55, label %62

55:                                               ; preds = %47
  %56 = load i64, ptr %18, align 8, !tbaa !8
  %57 = call i64 @_mi_align_up(i64 noundef %56, i64 noundef 65536) #9
  store i64 %57, ptr %19, align 8, !tbaa !8
  %58 = load i64, ptr %18, align 8, !tbaa !8
  %59 = load i64, ptr %11, align 8, !tbaa !8
  %60 = add i64 %58, %59
  %61 = call i64 @_mi_align_down(i64 noundef %60, i64 noundef 65536) #9
  store i64 %61, ptr %20, align 8, !tbaa !8
  br label %69

62:                                               ; preds = %47
  %63 = load i64, ptr %18, align 8, !tbaa !8
  %64 = call i64 @_mi_align_down(i64 noundef %63, i64 noundef 65536) #9
  store i64 %64, ptr %19, align 8, !tbaa !8
  %65 = load i64, ptr %18, align 8, !tbaa !8
  %66 = load i64, ptr %11, align 8, !tbaa !8
  %67 = add i64 %65, %66
  %68 = call i64 @_mi_align_up(i64 noundef %67, i64 noundef 65536) #9
  store i64 %68, ptr %20, align 8, !tbaa !8
  br label %69

69:                                               ; preds = %62, %55
  %70 = load i64, ptr %18, align 8, !tbaa !8
  %71 = load i64, ptr %15, align 8, !tbaa !8
  %72 = icmp uge i64 %70, %71
  br i1 %72, label %73, label %79

73:                                               ; preds = %69
  %74 = load i64, ptr %19, align 8, !tbaa !8
  %75 = load i64, ptr %15, align 8, !tbaa !8
  %76 = icmp ult i64 %74, %75
  br i1 %76, label %77, label %79

77:                                               ; preds = %73
  %78 = load i64, ptr %15, align 8, !tbaa !8
  store i64 %78, ptr %19, align 8, !tbaa !8
  br label %79

79:                                               ; preds = %77, %73, %69
  %80 = load i64, ptr %20, align 8, !tbaa !8
  %81 = load i64, ptr %16, align 8, !tbaa !8
  %82 = icmp ugt i64 %80, %81
  br i1 %82, label %83, label %85

83:                                               ; preds = %79
  %84 = load i64, ptr %16, align 8, !tbaa !8
  store i64 %84, ptr %20, align 8, !tbaa !8
  br label %85

85:                                               ; preds = %83, %79
  %86 = load ptr, ptr %8, align 8, !tbaa !19
  %87 = load i64, ptr %19, align 8, !tbaa !8
  %88 = getelementptr inbounds nuw i8, ptr %86, i64 %87
  %89 = load ptr, ptr %12, align 8, !tbaa !104
  store ptr %88, ptr %89, align 8, !tbaa !23
  %90 = load i64, ptr %20, align 8, !tbaa !8
  %91 = load i64, ptr %19, align 8, !tbaa !8
  %92 = icmp ugt i64 %90, %91
  br i1 %92, label %93, label %97

93:                                               ; preds = %85
  %94 = load i64, ptr %20, align 8, !tbaa !8
  %95 = load i64, ptr %19, align 8, !tbaa !8
  %96 = sub i64 %94, %95
  br label %98

97:                                               ; preds = %85
  br label %98

98:                                               ; preds = %97, %93
  %99 = phi i64 [ %96, %93 ], [ 0, %97 ]
  %100 = load ptr, ptr %13, align 8, !tbaa !13
  store i64 %99, ptr %100, align 8, !tbaa !8
  %101 = load ptr, ptr %13, align 8, !tbaa !13
  %102 = load i64, ptr %101, align 8, !tbaa !8
  %103 = icmp eq i64 %102, 0
  br i1 %103, label %104, label %105

104:                                              ; preds = %98
  store i32 1, ptr %17, align 4
  br label %128

105:                                              ; preds = %98
  call void @llvm.lifetime.start.p0(i64 8, ptr %21) #8
  %106 = load i64, ptr %19, align 8, !tbaa !8
  %107 = udiv i64 %106, 65536
  store i64 %107, ptr %21, align 8, !tbaa !8
  call void @llvm.lifetime.start.p0(i64 8, ptr %22) #8
  %108 = load ptr, ptr %13, align 8, !tbaa !13
  %109 = load i64, ptr %108, align 8, !tbaa !8
  %110 = udiv i64 %109, 65536
  store i64 %110, ptr %22, align 8, !tbaa !8
  %111 = load i64, ptr %21, align 8, !tbaa !8
  %112 = load i64, ptr %22, align 8, !tbaa !8
  %113 = add i64 %111, %112
  %114 = icmp ugt i64 %113, 512
  br i1 %114, label %115, label %124

115:                                              ; preds = %105
  %116 = load i64, ptr %21, align 8, !tbaa !8
  %117 = load i64, ptr %22, align 8, !tbaa !8
  %118 = load i64, ptr %19, align 8, !tbaa !8
  %119 = load i64, ptr %20, align 8, !tbaa !8
  %120 = load ptr, ptr %10, align 8, !tbaa !23
  %121 = load i64, ptr %11, align 8, !tbaa !8
  %122 = load ptr, ptr %13, align 8, !tbaa !13
  %123 = load i64, ptr %122, align 8, !tbaa !8
  call void (ptr, ...) @_mi_warning_message(ptr noundef @.str, i64 noundef %116, i64 noundef %117, i64 noundef %118, i64 noundef %119, ptr noundef %120, i64 noundef %121, i64 noundef %123) #9
  br label %124

124:                                              ; preds = %115, %105
  %125 = load i64, ptr %21, align 8, !tbaa !8
  %126 = load i64, ptr %22, align 8, !tbaa !8
  %127 = load ptr, ptr %14, align 8, !tbaa !3
  call void @mi_commit_mask_create(i64 noundef %125, i64 noundef %126, ptr noundef %127) #9
  call void @llvm.lifetime.end.p0(i64 8, ptr %22) #8
  call void @llvm.lifetime.end.p0(i64 8, ptr %21) #8
  store i32 0, ptr %17, align 4
  br label %128

128:                                              ; preds = %124, %104
  call void @llvm.lifetime.end.p0(i64 8, ptr %20) #8
  call void @llvm.lifetime.end.p0(i64 8, ptr %19) #8
  call void @llvm.lifetime.end.p0(i64 8, ptr %18) #8
  br label %129

129:                                              ; preds = %128, %46
  call void @llvm.lifetime.end.p0(i64 8, ptr %16) #8
  call void @llvm.lifetime.end.p0(i64 8, ptr %15) #8
  %130 = load i32, ptr %17, align 4
  switch i32 %130, label %132 [
    i32 0, label %131
    i32 1, label %131
  ]

131:                                              ; preds = %35, %129, %129
  ret void

132:                                              ; preds = %129
  unreachable
}