; Function Attrs: nounwind uwtable
define internal fastcc void @mi_segment_commit_mask(ptr noundef %0, i1 noundef zeroext %1, ptr noundef %2, i64 noundef %3, ptr noundef nonnull writeonly captures(none) %4, ptr noundef nonnull writeonly captures(none) %5, ptr noundef nonnull writeonly captures(none) initializes((0, 64)) %6) unnamed_addr #4 {
  tail call void @llvm.memset.p0.i64(ptr noundef nonnull align 8 dereferenceable(64) %6, i8 0, i64 64, i1 false), !tbaa !3
  %8 = add i64 %3, -33554433
  %or.cond = icmp ult i64 %8, -33554432
  br i1 %or.cond, label %mi_commit_mask_create.exit, label %9

9:                                                ; preds = %7
  %10 = getelementptr inbounds nuw i8, ptr %0, i64 264
  %11 = load i32, ptr %10, align 8, !tbaa !47
  %12 = icmp eq i32 %11, 1
  br i1 %12, label %mi_commit_mask_create.exit, label %13

13:                                               ; preds = %9
  %14 = getelementptr i8, ptr %0, i64 248
  %.val59 = load i64, ptr %14, align 8, !tbaa !56
  %15 = shl i64 %.val59, 16
  %16 = getelementptr inbounds nuw i8, ptr %0, i64 %15
  %.not = icmp ult ptr %2, %16
  br i1 %.not, label %17, label %mi_commit_mask_create.exit

17:                                               ; preds = %13
  %18 = getelementptr i8, ptr %0, i64 256
  %.val = load i64, ptr %18, align 8, !tbaa !54
  %19 = shl i64 %.val, 16
  %20 = ptrtoint ptr %2 to i64
  %21 = ptrtoint ptr %0 to i64
  %22 = sub i64 %20, %21
  %23 = add i64 %22, 65535
  %24 = add nuw nsw i64 %3, 65535
  %.049.in.v = select i1 %1, i64 %3, i64 %24
  %.049.in = add i64 %22, %.049.in.v
  %.0.in = select i1 %1, i64 %23, i64 %22
  %.0 = and i64 %.0.in, -65536
  %.049 = and i64 %.049.in, -65536
  %.not56.not = icmp ult i64 %22, %19
  %25 = tail call i64 @llvm.umax.i64(i64 %.0, i64 %19)
  %.1 = select i1 %.not56.not, i64 %.0, i64 %25
  %.150 = tail call i64 @llvm.umin.i64(i64 %.049, i64 %15)
  %26 = getelementptr inbounds nuw i8, ptr %0, i64 %.1
  store ptr %26, ptr %4, align 8, !tbaa !101
  %27 = tail call i64 @llvm.usub.sat.i64(i64 %.150, i64 %.1)
  store i64 %27, ptr %5, align 8, !tbaa !3
  %.not57 = icmp ugt i64 %.150, %.1
  br i1 %.not57, label %28, label %mi_commit_mask_create.exit

28:                                               ; preds = %17
  %29 = lshr exact i64 %.1, 16
  %30 = lshr exact i64 %27, 16
  %31 = add nuw nsw i64 %30, %29
  %32 = icmp samesign ugt i64 %31, 512
  br i1 %32, label %33, label %34

33:                                               ; preds = %28
  tail call void (ptr, ...) @_mi_warning_message(ptr noundef nonnull @.str, i64 noundef %29, i64 noundef %30, i64 noundef %.1, i64 noundef %.150, ptr noundef %2, i64 noundef %3, i64 noundef %27) #11
  br label %34

34:                                               ; preds = %33, %28
  switch i64 %30, label %.lr.ph.i [
    i64 512, label %35
    i64 0, label %36
  ]

35:                                               ; preds = %34
  tail call void @llvm.memset.p0.i64(ptr noundef nonnull align 8 dereferenceable(64) %6, i8 -1, i64 64, i1 false), !tbaa !3
  br label %mi_commit_mask_create.exit

36:                                               ; preds = %34
  tail call void @llvm.memset.p0.i64(ptr noundef nonnull align 8 dereferenceable(64) %6, i8 0, i64 64, i1 false), !tbaa !3
  br label %mi_commit_mask_create.exit

.lr.ph.i:                                         ; preds = %34
  tail call void @llvm.memset.p0.i64(ptr noundef nonnull align 8 dereferenceable(64) %6, i8 0, i64 64, i1 false), !tbaa !3
  %37 = lshr i64 %.1, 22
  %38 = and i64 %29, 63
  br label %39

39:                                               ; preds = %39, %.lr.ph.i
  %.028.i = phi i64 [ %30, %.lr.ph.i ], [ %47, %39 ]
  %.02127.i = phi i64 [ %37, %.lr.ph.i ], [ %48, %39 ]
  %.02226.i = phi i64 [ %38, %.lr.ph.i ], [ 0, %39 ]
  %40 = sub nuw nsw i64 64, %.02226.i
  %41 = tail call i64 @llvm.umin.i64(i64 %.028.i, i64 %40)
  %42 = icmp samesign ugt i64 %41, 63
  %notmask.i = shl nsw i64 -1, %41
  %43 = xor i64 %notmask.i, -1
  %44 = shl i64 %43, %.02226.i
  %45 = select i1 %42, i64 -1, i64 %44
  %46 = getelementptr inbounds nuw [8 x i64], ptr %6, i64 0, i64 %.02127.i
  store i64 %45, ptr %46, align 8, !tbaa !3
  %47 = sub i64 %.028.i, %41
  %48 = add i64 %.02127.i, 1
  %.not.i = icmp eq i64 %47, 0
  br i1 %.not.i, label %mi_commit_mask_create.exit, label %39, !llvm.loop !105

mi_commit_mask_create.exit:                       ; preds = %39, %36, %35, %13, %17, %7, %9
  ret void
}